; Function Attrs: mustprogress nofree nounwind willreturn memory(read, inaccessiblemem: none) uwtable
define hidden noundef range(i32 0, 2) i32 @_ZNK11OpenImageIO6v3_1_08term_pvt10TermOutput8supportsENS0_17basic_string_viewIcSt11char_traitsIcEEE(ptr nonnull readnone align 8 captures(none) %0, ptr noundef readonly captures(none) %1) unnamed_addr #5 align 2 personality ptr @__gxx_personality_v0 {
  %3 = load ptr, ptr %1, align 8, !tbaa !3
  %4 = getelementptr inbounds nuw i8, ptr %1, i64 8
  %5 = load i64, ptr %4, align 8, !tbaa !10
  switch i64 %5, label %_ZN11OpenImageIO6v3_1_0eqENS0_17basic_string_viewIcSt11char_traitsIcEEES4_.exit [
    i64 5, label %_ZNSt11char_traitsIcE7compareEPKcS2_m.exit.i.i
    i64 13, label %_ZNSt11char_traitsIcE7compareEPKcS2_m.exit.i.i6
    i64 7, label %_ZNSt11char_traitsIcE7compareEPKcS2_m.exit.i.i11
    i64 10, label %_ZNSt11char_traitsIcE7compareEPKcS2_m.exit.i.i16
  ]

_ZNSt11char_traitsIcE7compareEPKcS2_m.exit.i.i:   ; preds = %2
  %bcmp.i = tail call i32 @bcmp(ptr noundef nonnull dereferenceable(5) %3, ptr noundef nonnull dereferenceable(5) @.str, i64 5)
  %.not.i.i = icmp eq i32 %bcmp.i, 0
  br i1 %.not.i.i, label %_ZN11OpenImageIO6v3_1_0eqENS0_17basic_string_viewIcSt11char_traitsIcEEES4_.exit, label %_ZNSt11char_traitsIcE7compareEPKcS2_m.exit.i.i1

_ZNSt11char_traitsIcE7compareEPKcS2_m.exit.i.i1:  ; preds = %_ZNSt11char_traitsIcE7compareEPKcS2_m.exit.i.i
  %bcmp.i2 = tail call i32 @bcmp(ptr noundef nonnull dereferenceable(5) %3, ptr noundef nonnull dereferenceable(5) @.str.1, i64 5)
  %.not.i.i3 = icmp eq i32 %bcmp.i2, 0
  br label %_ZN11OpenImageIO6v3_1_0eqENS0_17basic_string_viewIcSt11char_traitsIcEEES4_.exit

_ZNSt11char_traitsIcE7compareEPKcS2_m.exit.i.i6:  ; preds = %2
  %bcmp.i7 = tail call i32 @bcmp(ptr %3, ptr nonnull @.str.2, i64 %5)
  %.not.i.i8 = icmp eq i32 %bcmp.i7, 0
  br label %_ZN11OpenImageIO6v3_1_0eqENS0_17basic_string_viewIcSt11char_traitsIcEEES4_.exit

_ZNSt11char_traitsIcE7compareEPKcS2_m.exit.i.i11: ; preds = %2
  %bcmp.i12 = tail call i32 @bcmp(ptr %3, ptr nonnull @.str.3, i64 %5)
  %.not.i.i13 = icmp eq i32 %bcmp.i12, 0
  br label %_ZN11OpenImageIO6v3_1_0eqENS0_17basic_string_viewIcSt11char_traitsIcEEES4_.exit

_ZNSt11char_traitsIcE7compareEPKcS2_m.exit.i.i16: ; preds = %2
  %bcmp.i17 = tail call i32 @bcmp(ptr %3, ptr nonnull @.str.4, i64 %5)
  %.not.i.i18 = icmp eq i32 %bcmp.i17, 0
  br label %_ZN11OpenImageIO6v3_1_0eqENS0_17basic_string_viewIcSt11char_traitsIcEEES4_.exit

_ZN11OpenImageIO6v3_1_0eqENS0_17basic_string_viewIcSt11char_traitsIcEEES4_.exit: ; preds = %_ZNSt11char_traitsIcE7compareEPKcS2_m.exit.i.i11, %_ZNSt11char_traitsIcE7compareEPKcS2_m.exit.i.i6, %_ZNSt11char_traitsIcE7compareEPKcS2_m.exit.i.i1, %_ZNSt11char_traitsIcE7compareEPKcS2_m.exit.i.i16, %2, %_ZNSt11char_traitsIcE7compareEPKcS2_m.exit.i.i
  %.shrunk = phi i1 [ true, %_ZNSt11char_traitsIcE7compareEPKcS2_m.exit.i.i ], [ false, %2 ], [ %.not.i.i18, %_ZNSt11char_traitsIcE7compareEPKcS2_m.exit.i.i16 ], [ %.not.i.i3, %_ZNSt11char_traitsIcE7compareEPKcS2_m.exit.i.i1 ], [ %.not.i.i8, %_ZNSt11char_traitsIcE7compareEPKcS2_m.exit.i.i6 ], [ %.not.i.i13, %_ZNSt11char_traitsIcE7compareEPKcS2_m.exit.i.i11 ]
  %6 = zext i1 %.shrunk to i32
  ret i32 %6
}